ccopy_reg
_reconstructor
p0
(cgoogle.oauth2.credentials
Credentials
p1
c__builtin__
object
p2
Ntp3
Rp4
(dp5
S'_quota_project_id'
p6
NsS'_token_uri'
p7
Vhttps://oauth2.googleapis.com/token
p8
sS'_client_secret'
p9
Veldihq1tH2GgKM-_pMV0eaVH
p10
sS'_id_token'
p11
NsS'token'
p12
Vya29.a0Ae4lvC39tj7cGbAdVDR8Vw89ANK5Tr0DNmkNEAXgerzXChIMDBKKXFHEVTPDykosMBM8V43d7gN_d2kUEMDqo_WM3MKrAVqPoWloARwfeD3EU1pCTf1ocDtxxKyf8m9wRDiVZedx3Egw0b2cen7uzj_Dw-bSbFuptCKx
p13
sS'_refresh_token'
p14
V1//06X1IrCdC_ExdCgYIARAAGAYSNgF-L9Ir_AIK9Y22hPL_F0WK2_V46qE9MsngfIgurtiB8s4yvekbl05RUwbAy-swpU1hHsWPPw
p15
sS'_scopes'
p16
(lp17
S'https://www.googleapis.com/auth/calendar.readonly'
p18
asS'_client_id'
p19
V363237769211-mf5h51tplbrrkbjf82lpj5feie1dnqnd.apps.googleusercontent.com
p20
sS'expiry'
p21
cdatetime
datetime
p22
(S'\x07\xe4\x04\r\x03\x0e \x01\x05\xbf'
p23
tp24
Rp25
sb.